target datalayout = "e-m:e-p270:32:32-p271:32:32-p272:64:64-i64:64-i128:128-f80:128-n8:16:32:64-S128"
target triple = "x86_64-pc-linux-gnu"

@.str.3 = private unnamed_addr constant [7 x i8] c"%4d : \00", align 1
@.str.4 = private unnamed_addr constant [13 x i8] c"Depth =%3d  \00", align 1
@.str.5 = private unnamed_addr constant [14 x i8] c"SatVar =%7d  \00", align 1
@.str.6 = private unnamed_addr constant [16 x i8] c"SatConf =%7d   \00", align 1
@.str.7 = private unnamed_addr constant [6 x i8] c"%s   \00", align 1
@.str.8 = private unnamed_addr constant [10 x i8] c"UNSAT    \00", align 1
@.str.9 = private unnamed_addr constant [10 x i8] c"UNDECIDED\00", align 1
@.str.10 = private unnamed_addr constant [10 x i8] c"SAT      \00", align 1
@.str.11 = private unnamed_addr constant [19 x i8] c"Solved %8.4f %%   \00", align 1
@.str.12 = private unnamed_addr constant [5 x i8] c"Time\00", align 1
@stdout = external global ptr, align 8
@.str.34 = private unnamed_addr constant [5 x i8] c"%s =\00", align 1
@.str.35 = private unnamed_addr constant [11 x i8] c"%9.2f sec\0A\00", align 1

; Function Attrs: inlinehint nounwind uwtable
define internal void @Abc_PrintTime(i32 noundef %0, ptr noundef %1, i64 noundef %2) #4 {
  %4 = alloca i32, align 4
  %5 = alloca ptr, align 8
  %6 = alloca i64, align 8
  store i32 %0, ptr %4, align 4, !tbaa !8
  store ptr %1, ptr %5, align 8, !tbaa !72
  store i64 %2, ptr %6, align 8, !tbaa !70
  %7 = load ptr, ptr %5, align 8, !tbaa !72
  call void (i32, ptr, ...) @Abc_Print(i32 noundef 1, ptr noundef @.str.34, ptr noundef %7)
  %8 = load i64, ptr %6, align 8, !tbaa !70
  %9 = sitofp i64 %8 to double
  %10 = fmul double 1.000000e+00, %9
  %11 = fdiv double %10, 1.000000e+06
  call void (i32, ptr, ...) @Abc_Print(i32 noundef 1, ptr noundef @.str.35, double noundef %11)
  ret void
}

; Function Attrs: nounwind uwtable
define void @Cec_GiaSplitPrint(i32 noundef %0, i32 noundef %1, i32 noundef %2, i32 noundef %3, i32 noundef %4, double noundef %5, i64 noundef %6) #0 {
  %8 = alloca i32, align 4
  %9 = alloca i32, align 4
  %10 = alloca i32, align 4
  %11 = alloca i32, align 4
  %12 = alloca i32, align 4
  %13 = alloca double, align 8
  %14 = alloca i64, align 8
  store i32 %0, ptr %8, align 4, !tbaa !8
  store i32 %1, ptr %9, align 4, !tbaa !8
  store i32 %2, ptr %10, align 4, !tbaa !8
  store i32 %3, ptr %11, align 4, !tbaa !8
  store i32 %4, ptr %12, align 4, !tbaa !8
  store double %5, ptr %13, align 8, !tbaa !69
  store i64 %6, ptr %14, align 8, !tbaa !70
  %15 = load i32, ptr %8, align 4, !tbaa !8
  %16 = call i32 (ptr, ...) @printf(ptr noundef @.str.3, i32 noundef %15)
  %17 = load i32, ptr %9, align 4, !tbaa !8
  %18 = call i32 (ptr, ...) @printf(ptr noundef @.str.4, i32 noundef %17)
  %19 = load i32, ptr %10, align 4, !tbaa !8
  %20 = call i32 (ptr, ...) @printf(ptr noundef @.str.5, i32 noundef %19)
  %21 = load i32, ptr %11, align 4, !tbaa !8
  %22 = call i32 (ptr, ...) @printf(ptr noundef @.str.6, i32 noundef %21)
  %23 = load i32, ptr %12, align 4, !tbaa !8
  %24 = icmp ne i32 %23, 0
  br i1 %24, label %25, label %29

25:                                               ; preds = %7
  %26 = load i32, ptr %12, align 4, !tbaa !8
  %27 = icmp eq i32 %26, 1
  %28 = select i1 %27, ptr @.str.8, ptr @.str.9
  br label %30

29:                                               ; preds = %7
  br label %30

30:                                               ; preds = %29, %25
  %31 = phi ptr [ %28, %25 ], [ @.str.10, %29 ]
  %32 = call i32 (ptr, ...) @printf(ptr noundef @.str.7, ptr noundef %31)
  %33 = load double, ptr %13, align 8, !tbaa !69
  %34 = fmul double 1.000000e+02, %33
  %35 = call i32 (ptr, ...) @printf(ptr noundef @.str.11, double noundef %34)
  %36 = load i64, ptr %14, align 8, !tbaa !70
  call void @Abc_PrintTime(i32 noundef 1, ptr noundef @.str.12, i64 noundef %36)
  %37 = load ptr, ptr @stdout, align 8, !tbaa !71
  %38 = call i32 @fflush(ptr noundef %37)
  ret void
}