; Function Attrs: nounwind uwtable
define void @Cec_GiaSplitPrint(i32 noundef %0, i32 noundef %1, i32 noundef %2, i32 noundef %3, i32 noundef %4, double noundef %5, i64 noundef %6) local_unnamed_addr #0 {
  %8 = tail call i32 (ptr, ...) @printf(ptr noundef nonnull dereferenceable(1) @.str.3, i32 noundef %0)
  %9 = tail call i32 (ptr, ...) @printf(ptr noundef nonnull dereferenceable(1) @.str.4, i32 noundef %1)
  %10 = tail call i32 (ptr, ...) @printf(ptr noundef nonnull dereferenceable(1) @.str.5, i32 noundef %2)
  %11 = tail call i32 (ptr, ...) @printf(ptr noundef nonnull dereferenceable(1) @.str.6, i32 noundef %3)
  %.not = icmp eq i32 %4, 0
  %12 = icmp eq i32 %4, 1
  %13 = select i1 %12, ptr @.str.8, ptr @.str.9
  %14 = select i1 %.not, ptr @.str.10, ptr %13
  %15 = tail call i32 (ptr, ...) @printf(ptr noundef nonnull dereferenceable(1) @.str.7, ptr noundef nonnull %14)
  %16 = fmul double %5, 1.000000e+02
  %17 = tail call i32 (ptr, ...) @printf(ptr noundef nonnull dereferenceable(1) @.str.11, double noundef %16)
  tail call void (i32, ptr, ...) @Abc_Print(i32 poison, ptr noundef nonnull @.str.34, ptr noundef nonnull @.str.12)
  %18 = sitofp i64 %6 to double
  %19 = fdiv double %18, 1.000000e+06
  tail call void (i32, ptr, ...) @Abc_Print(i32 poison, ptr noundef nonnull @.str.35, double noundef %19)
  %20 = load ptr, ptr @stdout, align 8, !tbaa !61
  %21 = tail call i32 @fflush(ptr noundef %20)
  ret void
}